(dp0
S'110000'
p1
c__builtin__
set
p2
((lp3
S'110001'
p4
atp5
Rp6
sS'144300'
p7
g2
((lp8
S'144302'
p9
aS'144301'
p10
atp11
Rp12
sS'127400'
p13
g2
((lp14
S'127402'
p15
aS'127403'
p16
aS'127401'
p17
atp18
Rp19
sS'145200'
p20
g2
((lp21
S'145201'
p22
aS'145202'
p23
aS'145203'
p24
atp25
Rp26
sS'122000'
p27
g2
((lp28
S'122001'
p29
aS'122002'
p30
atp31
Rp32
sS'142100'
p33
g2
((lp34
S'142101'
p35
atp36
Rp37
sS'119600'
p38
g2
((lp39
S'119605'
p40
aS'119604'
p41
aS'119601'
p42
aS'119603'
p43
aS'119602'
p44
atp45
Rp46
sS'116000'
p47
g2
((lp48
S'116002'
p49
aS'116001'
p50
atp51
Rp52
sS'100200'
p53
g2
((lp54
S'100201'
p55
atp56
Rp57
sS'115000'
p58
g2
((lp59
S'115001'
p60
atp61
Rp62
sS'130900'
p63
g2
((lp64
S'130901'
p65
atp66
Rp67
sS'133700'
p68
g2
((lp69
S'133701'
p70
aS'133702'
p71
aS'133703'
p72
atp73
Rp74
sS'108900'
p75
g2
((lp76
S'108901'
p77
aS'108902'
p78
atp79
Rp80
sS'138000'
p81
g2
((lp82
S'138011'
p83
aS'138010'
p84
aS'138012'
p85
aS'138008'
p86
aS'138009'
p87
aS'138006'
p88
aS'138007'
p89
aS'138004'
p90
aS'138005'
p91
aS'138002'
p92
aS'138003'
p93
aS'138001'
p94
atp95
Rp96
sS'140400'
p97
g2
((lp98
S'140401'
p99
atp100
Rp101
sS'117800'
p102
g2
((lp103
S'117801'
p104
aS'117802'
p105
atp106
Rp107
sS'109500'
p108
g2
((lp109
S'109501'
p110
atp111
Rp112
sS'137600'
p113
g2
((lp114
S'137601'
p115
aS'137603'
p116
aS'137602'
p117
atp118
Rp119
sS'122500'
p120
g2
((lp121
S'122501'
p122
aS'122502'
p123
aS'122503'
p124
aS'122504'
p125
atp126
Rp127
sS'141300'
p128
g2
((lp129
S'141301'
p130
aS'141303'
p131
aS'141302'
p132
aS'141304'
p133
atp134
Rp135
sS'125200'
p136
g2
((lp137
S'125202'
p138
aS'125203'
p139
aS'125201'
p140
atp141
Rp142
sS'134600'
p143
g2
((lp144
S'134604'
p145
aS'134605'
p146
aS'134601'
p147
aS'134602'
p148
aS'134603'
p149
atp150
Rp151
sS'128400'
p152
g2
((lp153
S'128401'
p154
atp155
Rp156
sS'129400'
p157
g2
((lp158
S'129401'
p159
atp160
Rp161
sS'131200'
p162
g2
((lp163
S'131201'
p164
atp165
Rp166
sS'112100'
p167
g2
((lp168
S'112101'
p169
atp170
Rp171
sS'138300'
p172
g2
((lp173
S'138305'
p174
aS'138304'
p175
aS'138307'
p176
aS'138306'
p177
aS'138301'
p178
aS'138303'
p179
aS'138302'
p180
aS'138309'
p181
aS'138308'
p182
atp183
Rp184
sS'142200'
p185
g2
((lp186
S'142201'
p187
atp188
Rp189
sS'100700'
p190
g2
((lp191
S'100701'
p192
atp193
Rp194
sS'124000'
p195
g2
((lp196
S'124003'
p197
aS'124002'
p198
aS'124001'
p199
atp200
Rp201
sS'137300'
p202
g2
((lp203
S'137301'
p204
aS'137302'
p205
atp206
Rp207
sS'147400'
p208
g2
((lp209
S'147401'
p210
aS'147402'
p211
atp212
Rp213
sS'148900'
p214
g2
((lp215
S'148901'
p216
aS'148902'
p217
atp218
Rp219
sS'140500'
p220
g2
((lp221
S'140501'
p222
aS'140502'
p223
aS'140503'
p224
atp225
Rp226
sS'109800'
p227
g2
((lp228
S'109802'
p229
aS'109801'
p230
atp231
Rp232
sS'148300'
p233
g2
((lp234
S'148301'
p235
atp236
Rp237
sS'149900'
p238
g2
((lp239
S'149902'
p240
aS'149901'
p241
atp242
Rp243
sS'106400'
p244
g2
((lp245
S'106403'
p246
aS'106402'
p247
aS'106401'
p248
atp249
Rp250
sS'119300'
p251
g2
((lp252
S'119301'
p253
atp254
Rp255
sS'116300'
p256
g2
((lp257
S'116301'
p258
atp259
Rp260
sS'149200'
p261
g2
((lp262
S'149201'
p263
atp264
Rp265
sS'119900'
p266
g2
((lp267
S'119901'
p268
atp269
Rp270
sS'111800'
p271
g2
((lp272
S'111801'
p273
atp274
Rp275
sS'107100'
p276
g2
((lp277
S'107101'
p278
atp279
Rp280
sS'114600'
p281
g2
((lp282
S'114601'
p283
atp284
Rp285
sS'128900'
p286
g2
((lp287
S'128901'
p288
atp289
Rp290
sS'121800'
p291
g2
((lp292
S'121801'
p293
atp294
Rp295
sS'118800'
p296
g2
((lp297
S'118801'
p298
aS'118802'
p299
aS'118803'
p300
atp301
Rp302
sS'131700'
p303
g2
((lp304
S'131701'
p305
atp306
Rp307
sS'115200'
p308
g2
((lp309
S'115201'
p310
atp311
Rp312
sS'135900'
p313
g2
((lp314
S'135901'
p315
aS'135902'
p316
atp317
Rp318
sS'125100'
p319
g2
((lp320
S'125101'
p321
aS'125102'
p322
atp323
Rp324
sS'116600'
p325
g2
((lp326
S'116601'
p327
atp328
Rp329
sS'100400'
p330
g2
((lp331
S'100401'
p332
atp333
Rp334
sS'120900'
p335
g2
((lp336
S'120901'
p337
atp338
Rp339
sS'138600'
p340
g2
((lp341
S'138601'
p342
aS'138602'
p343
aS'138603'
p344
aS'138604'
p345
aS'138605'
p346
atp347
Rp348
sS'146300'
p349
g2
((lp350
S'146301'
p351
aS'146302'
p352
aS'146303'
p353
atp354
Rp355
sS'123100'
p356
g2
((lp357
S'123101'
p358
atp359
Rp360
sS'143000'
p361
g2
((lp362
S'143001'
p363
atp364
Rp365
sS'105300'
p366
g2
((lp367
S'105301'
p368
atp369
Rp370
sS'110700'
p371
g2
((lp372
S'110702'
p373
aS'110701'
p374
atp375
Rp376
sS'125400'
p377
g2
((lp378
S'125401'
p379
atp380
Rp381
sS'103900'
p382
g2
((lp383
S'103901'
p384
aS'103902'
p385
atp386
Rp387
sS'134000'
p388
g2
((lp389
S'134002'
p390
aS'134003'
p391
aS'134001'
p392
atp393
Rp394
sS'134800'
p395
g2
((lp396
S'134802'
p397
aS'134803'
p398
aS'134801'
p399
aS'134804'
p400
atp401
Rp402
sS'113700'
p403
g2
((lp404
S'113701'
p405
atp406
Rp407
sS'126800'
p408
g2
((lp409
S'126808'
p410
aS'126801'
p411
aS'126803'
p412
aS'126802'
p413
aS'126805'
p414
aS'126804'
p415
aS'126807'
p416
aS'126806'
p417
atp418
Rp419
sS'107400'
p420
g2
((lp421
S'107401'
p422
atp423
Rp424
sS'131400'
p425
g2
((lp426
S'131401'
p427
aS'131402'
p428
atp429
Rp430
sS'130100'
p431
g2
((lp432
S'130102'
p433
aS'130101'
p434
atp435
Rp436
sS'114500'
p437
g2
((lp438
S'114504'
p439
aS'114501'
p440
aS'114503'
p441
aS'114502'
p442
atp443
Rp444
sS'136300'
p445
g2
((lp446
S'136301'
p447
atp448
Rp449
sS'146400'
p450
g2
((lp451
S'146403'
p452
aS'146402'
p453
aS'146401'
p454
aS'146405'
p455
aS'146404'
p456
atp457
Rp458
sS'108300'
p459
g2
((lp460
S'108301'
p461
atp462
Rp463
sS'134500'
p464
g2
((lp465
S'134504'
p466
aS'134503'
p467
aS'134502'
p468
aS'134501'
p469
atp470
Rp471
sS'127200'
p472
g2
((lp473
S'127201'
p474
aS'127202'
p475
atp476
Rp477
sS'144200'
p478
g2
((lp479
S'144201'
p480
atp481
Rp482
sS'145800'
p483
g2
((lp484
S'145802'
p485
aS'145803'
p486
aS'145801'
p487
atp488
Rp489
sS'123400'
p490
g2
((lp491
S'123402'
p492
aS'123403'
p493
aS'123401'
p494
aS'123404'
p495
atp496
Rp497
sS'113400'
p498
g2
((lp499
S'113404'
p500
aS'113401'
p501
aS'113403'
p502
aS'113402'
p503
atp504
Rp505
sS'126000'
p506
g2
((lp507
S'126001'
p508
aS'126002'
p509
atp510
Rp511
sS'110100'
p512
g2
((lp513
S'110101'
p514
atp515
Rp516
sS'114000'
p517
g2
((lp518
S'114001'
p519
aS'114002'
p520
atp521
Rp522
sS'111500'
p523
g2
((lp524
S'111501'
p525
atp526
Rp527
sS'149800'
p528
g2
((lp529
S'149801'
p530
atp531
Rp532
sS'119700'
p533
g2
((lp534
S'119704'
p535
aS'119701'
p536
aS'119702'
p537
aS'119703'
p538
atp539
Rp540
sS'140300'
p541
g2
((lp542
S'140301'
p543
atp544
Rp545
sS'132900'
p546
g2
((lp547
S'132901'
p548
aS'132902'
p549
atp550
Rp551
sS'149600'
p552
g2
((lp553
S'149604'
p554
aS'149601'
p555
aS'149602'
p556
aS'149603'
p557
atp558
Rp559
sS'112600'
p560
g2
((lp561
S'112601'
p562
aS'112602'
p563
atp564
Rp565
sS'118600'
p566
g2
((lp567
S'118601'
p568
atp569
Rp570
sS'143700'
p571
g2
((lp572
S'143702'
p573
aS'143701'
p574
atp575
Rp576
sS'101200'
p577
g2
((lp578
S'101201'
p579
atp580
Rp581
sS'121700'
p582
g2
((lp583
S'121701'
p584
atp585
Rp586
sS'102300'
p587
g2
((lp588
S'102301'
p589
aS'102302'
p590
aS'102303'
p591
atp592
Rp593
sS'110900'
p594
g2
((lp595
S'110901'
p596
atp597
Rp598
sS'147300'
p599
g2
((lp600
S'147303'
p601
aS'147302'
p602
aS'147301'
p603
aS'147304'
p604
atp605
Rp606
sS'100900'
p607
g2
((lp608
S'100901'
p609
aS'100902'
p610
atp611
Rp612
sS'120500'
p613
g2
((lp614
S'120501'
p615
atp616
Rp617
sS'130200'
p618
g2
((lp619
S'130201'
p620
atp621
Rp622
sS'123700'
p623
g2
((lp624
S'123701'
p625
atp626
Rp627
sS'108000'
p628
g2
((lp629
S'108001'
p630
atp631
Rp632
sS'127700'
p633
g2
((lp634
S'127701'
p635
atp636
Rp637
sS'101500'
p638
g2
((lp639
S'101503'
p640
aS'101502'
p641
aS'101501'
p642
aS'101504'
p643
atp644
Rp645
sS'148600'
p646
g2
((lp647
S'148603'
p648
aS'148602'
p649
aS'148601'
p650
atp651
Rp652
sS'120000'
p653
g2
((lp654
S'120001'
p655
atp656
Rp657
sS'115700'
p658
g2
((lp659
S'115701'
p660
aS'115702'
p661
atp662
Rp663
sS'137900'
p664
g2
((lp665
S'137901'
p666
atp667
Rp668
sS'138900'
p669
g2
((lp670
S'138905'
p671
aS'138904'
p672
aS'138903'
p673
aS'138902'
p674
aS'138901'
p675
atp676
Rp677
sS'118500'
p678
g2
((lp679
S'118501'
p680
atp681
Rp682
sS'121200'
p683
g2
((lp684
S'121201'
p685
atp686
Rp687
sS'142500'
p688
g2
((lp689
S'142502'
p690
aS'142501'
p691
atp692
Rp693
sS'136500'
p694
g2
((lp695
S'136501'
p696
aS'136503'
p697
aS'136502'
p698
aS'136505'
p699
aS'136504'
p700
atp701
Rp702
sS'111600'
p703
g2
((lp704
S'111601'
p705
atp706
Rp707
sS'108500'
p708
g2
((lp709
S'108501'
p710
atp711
Rp712
sS'140200'
p713
g2
((lp714
S'140201'
p715
atp716
Rp717
sS'146900'
p718
g2
((lp719
S'146901'
p720
atp721
Rp722
sS'149100'
p723
g2
((lp724
S'149102'
p725
aS'149101'
p726
atp727
Rp728
sS'107000'
p729
g2
((lp730
S'107001'
p731
atp732
Rp733
sS'134300'
p734
g2
((lp735
S'134301'
p736
atp737
Rp738
sS'139200'
p739
g2
((lp740
S'139205'
p741
aS'139204'
p742
aS'139203'
p743
aS'139202'
p744
aS'139201'
p745
atp746
Rp747
sS'102400'
p748
g2
((lp749
S'102402'
p750
aS'102401'
p751
atp752
Rp753
sS'103400'
p754
g2
((lp755
S'103401'
p756
atp757
Rp758
sS'102200'
p759
g2
((lp760
S'102201'
p761
aS'102202'
p762
atp763
Rp764
sS'136600'
p765
g2
((lp766
S'136601'
p767
atp768
Rp769
sS'104500'
p770
g2
((lp771
S'104501'
p772
aS'104502'
p773
atp774
Rp775
sS'141900'
p776
g2
((lp777
S'141901'
p778
atp779
Rp780
sS'131900'
p781
g2
((lp782
S'131901'
p783
atp784
Rp785
sS'119100'
p786
g2
((lp787
S'119101'
p788
atp789
Rp790
sS'111300'
p791
g2
((lp792
S'111301'
p793
atp794
Rp795
sS'126300'
p796
g2
((lp797
S'126301'
p798
atp799
Rp800
sS'130500'
p801
g2
((lp802
S'130501'
p803
atp804
Rp805
sS'108700'
p806
g2
((lp807
S'108701'
p808
atp809
Rp810
sS'128000'
p811
g2
((lp812
S'128002'
p813
aS'128001'
p814
atp815
Rp816
sS'132400'
p817
g2
((lp818
S'132401'
p819
aS'132402'
p820
atp821
Rp822
sS'121100'
p823
g2
((lp824
S'121101'
p825
atp826
Rp827
sS'116100'
p828
g2
((lp829
S'116101'
p830
atp831
Rp832
sS'124400'
p833
g2
((lp834
S'124402'
p835
aS'124401'
p836
atp837
Rp838
sS'103300'
p839
g2
((lp840
S'103303'
p841
aS'103302'
p842
aS'103301'
p843
aS'103304'
p844
atp845
Rp846
sS'102900'
p847
g2
((lp848
S'102901'
p849
atp850
Rp851
sS'126600'
p852
g2
((lp853
S'126601'
p854
atp855
Rp856
sS'113100'
p857
g2
((lp858
S'113101'
p859
atp860
Rp861
sS'139700'
p862
g2
((lp863
S'139701'
p864
atp865
Rp866
sS'141400'
p867
g2
((lp868
S'141401'
p869
atp870
Rp871
sS'144800'
p872
g2
((lp873
S'144804'
p874
aS'144801'
p875
aS'144803'
p876
aS'144802'
p877
atp878
Rp879
sS'104800'
p880
g2
((lp881
S'104801'
p882
aS'104802'
p883
atp884
Rp885
sS'117700'
p886
g2
((lp887
S'117701'
p888
atp889
Rp890
sS'134900'
p891
g2
((lp892
S'134901'
p893
atp894
Rp895
sS'105400'
p896
g2
((lp897
S'105401'
p898
atp899
Rp900
sS'116900'
p901
g2
((lp902
S'116901'
p903
atp904
Rp905
sS'130800'
p906
g2
((lp907
S'130802'
p908
aS'130801'
p909
atp910
Rp911
sS'123800'
p912
g2
((lp913
S'123801'
p914
atp915
Rp916
sS'101800'
p917
g2
((lp918
S'101801'
p919
atp920
Rp921
sS'120600'
p922
g2
((lp923
S'120601'
p924
atp925
Rp926
sS'147800'
p927
g2
((lp928
S'147801'
p929
aS'147802'
p930
atp931
Rp932
sS'148000'
p933
g2
((lp934
S'148001'
p935
aS'148003'
p936
aS'148002'
p937
aS'148004'
p938
atp939
Rp940
sS'106100'
p941
g2
((lp942
S'106101'
p943
atp944
Rp945
sS'104200'
p946
g2
((lp947
S'104203'
p948
aS'104202'
p949
aS'104201'
p950
atp951
Rp952
sS'109100'
p953
g2
((lp954
S'109101'
p955
atp956
Rp957
sS'105900'
p958
g2
((lp959
S'105901'
p960
atp961
Rp962
sS'141700'
p963
g2
((lp964
S'141704'
p965
aS'141701'
p966
aS'141703'
p967
aS'141702'
p968
atp969
Rp970
sS'133300'
p971
g2
((lp972
S'133301'
p973
atp974
Rp975
sS'145600'
p976
g2
((lp977
S'145601'
p978
atp979
Rp980
sS'144900'
p981
g2
((lp982
S'144901'
p983
aS'144902'
p984
aS'144903'
p985
atp986
Rp987
sS'112000'
p988
g2
((lp989
S'112002'
p990
aS'112003'
p991
aS'112001'
p992
atp993
Rp994
sS'132300'
p995
g2
((lp996
S'132303'
p997
aS'132302'
p998
aS'132301'
p999
atp1000
Rp1001
sS'139400'
p1002
g2
((lp1003
S'139401'
p1004
aS'139403'
p1005
aS'139402'
p1006
aS'139404'
p1007
atp1008
Rp1009
sS'142800'
p1010
g2
((lp1011
S'142801'
p1012
atp1013
Rp1014
sS'122100'
p1015
g2
((lp1016
S'122101'
p1017
aS'122102'
p1018
atp1019
Rp1020
sS'117400'
p1021
g2
((lp1022
S'117401'
p1023
aS'117403'
p1024
aS'117402'
p1025
atp1026
Rp1027
sS'110300'
p1028
g2
((lp1029
S'110302'
p1030
aS'110301'
p1031
atp1032
Rp1033
sS'136800'
p1034
g2
((lp1035
S'136804'
p1036
aS'136805'
p1037
aS'136801'
p1038
aS'136802'
p1039
aS'136803'
p1040
atp1041
Rp1042
sS'133400'
p1043
g2
((lp1044
S'133401'
p1045
atp1046
Rp1047
sS'148700'
p1048
g2
((lp1049
S'148701'
p1050
atp1051
Rp1052
sS'112500'
p1053
g2
((lp1054
S'112501'
p1055
atp1056
Rp1057
sS'142600'
p1058
g2
((lp1059
S'142601'
p1060
atp1061
Rp1062
sS'100300'
p1063
g2
((lp1064
S'100302'
p1065
aS'100301'
p1066
atp1067
Rp1068
sS'106200'
p1069
g2
((lp1070
S'106201'
p1071
aS'106202'
p1072
atp1073
Rp1074
sS'109400'
p1075
g2
((lp1076
S'109402'
p1077
aS'109401'
p1078
atp1079
Rp1080
sS'137700'
p1081
g2
((lp1082
S'137704'
p1083
aS'137705'
p1084
aS'137701'
p1085
aS'137702'
p1086
aS'137703'
p1087
atp1088
Rp1089
sS'124200'
p1090
g2
((lp1091
S'124201'
p1092
aS'124202'
p1093
atp1094
Rp1095
sS'144000'
p1096
g2
((lp1097
S'144001'
p1098
atp1099
Rp1100
sS'114900'
p1101
g2
((lp1102
S'114901'
p1103
aS'114903'
p1104
aS'114902'
p1105
atp1106
Rp1107
sS'128500'
p1108
g2
((lp1109
S'128502'
p1110
aS'128501'
p1111
atp1112
Rp1113
sS'131300'
p1114
g2
((lp1115
S'131301'
p1116
atp1117
Rp1118
sS'129700'
p1119
g2
((lp1120
S'129701'
p1121
atp1122
Rp1123
sS'141200'
p1124
g2
((lp1125
S'141201'
p1126
aS'141202'
p1127
atp1128
Rp1129
sS'106800'
p1130
g2
((lp1131
S'106801'
p1132
atp1133
Rp1134
sS'142300'
p1135
g2
((lp1136
S'142301'
p1137
aS'142302'
p1138
atp1139
Rp1140
sS'140100'
p1141
g2
((lp1142
S'140101'
p1143
atp1144
Rp1145
sS'124100'
p1146
g2
((lp1147
S'124101'
p1148
atp1149
Rp1150
sS'100000'
p1151
g2
((lp1152
S'100001'
p1153
aS'100002'
p1154
atp1155
Rp1156
sS'135500'
p1157
g2
((lp1158
S'135501'
p1159
aS'135502'
p1160
aS'135503'
p1161
atp1162
Rp1163
sS'140900'
p1164
g2
((lp1165
S'140901'
p1166
aS'140902'
p1167
atp1168
Rp1169
sS'114800'
p1170
g2
((lp1171
S'114801'
p1172
atp1173
Rp1174
sS'122600'
p1175
g2
((lp1176
S'122602'
p1177
aS'122601'
p1178
atp1179
Rp1180
sS'143300'
p1181
g2
((lp1182
S'143301'
p1183
atp1184
Rp1185
sS'119000'
p1186
g2
((lp1187
S'119001'
p1188
atp1189
Rp1190
sS'116200'
p1191
g2
((lp1192
S'116201'
p1193
atp1194
Rp1195
sS'144500'
p1196
g2
((lp1197
S'144501'
p1198
atp1199
Rp1200
sS'109700'
p1201
g2
((lp1202
S'109701'
p1203
atp1204
Rp1205
sS'147700'
p1206
g2
((lp1207
S'147702'
p1208
aS'147701'
p1209
atp1210
Rp1211
sS'138200'
p1212
g2
((lp1213
S'138201'
p1214
aS'138202'
p1215
aS'138203'
p1216
atp1217
Rp1218
sS'148400'
p1219
g2
((lp1220
S'148401'
p1221
atp1222
Rp1223
sS'106500'
p1224
g2
((lp1225
S'106501'
p1226
atp1227
Rp1228
sS'135200'
p1229
g2
((lp1230
S'135201'
p1231
atp1232
Rp1233
sS'140800'
p1234
g2
((lp1235
S'140801'
p1236
aS'140803'
p1237
aS'140802'
p1238
atp1239
Rp1240
sS'128600'
p1241
g2
((lp1242
S'128601'
p1243
atp1244
Rp1245
sS'129200'
p1246
g2
((lp1247
S'129202'
p1248
aS'129201'
p1249
atp1250
Rp1251
sS'105700'
p1252
g2
((lp1253
S'105701'
p1254
atp1255
Rp1256
sS'112900'
p1257
g2
((lp1258
S'112902'
p1259
aS'112901'
p1260
atp1261
Rp1262
sS'125000'
p1263
g2
((lp1264
S'125001'
p1265
atp1266
Rp1267
sS'110500'
p1268
g2
((lp1269
S'110501'
p1270
atp1271
Rp1272
sS'134400'
p1273
g2
((lp1274
S'134402'
p1275
aS'134403'
p1276
aS'134401'
p1277
atp1278
Rp1279
sS'115100'
p1280
g2
((lp1281
S'115101'
p1282
atp1283
Rp1284
sS'111900'
p1285
g2
((lp1286
S'111901'
p1287
atp1288
Rp1289
sS'112300'
p1290
g2
((lp1291
S'112301'
p1292
aS'112302'
p1293
atp1294
Rp1295
sS'138500'
p1296
g2
((lp1297
S'138503'
p1298
aS'138502'
p1299
aS'138501'
p1300
aS'138507'
p1301
aS'138506'
p1302
aS'138505'
p1303
aS'138504'
p1304
atp1305
Rp1306
sS'143900'
p1307
g2
((lp1308
S'143904'
p1309
aS'143901'
p1310
aS'143903'
p1311
aS'143902'
p1312
atp1313
Rp1314
sS'133900'
p1315
g2
((lp1316
S'133901'
p1317
atp1318
Rp1319
sS'140000'
p1320
g2
((lp1321
S'140001'
p1322
atp1323
Rp1324
sS'100500'
p1325
g2
((lp1326
S'100501'
p1327
aS'100502'
p1328
aS'100503'
p1329
atp1330
Rp1331
sS'105200'
p1332
g2
((lp1333
S'105201'
p1334
atp1335
Rp1336
sS'110600'
p1337
g2
((lp1338
S'110601'
p1339
atp1340
Rp1341
sS'145300'
p1342
g2
((lp1343
S'145301'
p1344
atp1345
Rp1346
sS'127600'
p1347
g2
((lp1348
S'127601'
p1349
aS'127602'
p1350
atp1351
Rp1352
sS'103800'
p1353
g2
((lp1354
S'103801'
p1355
atp1356
Rp1357
sS'122800'
p1358
g2
((lp1359
S'122801'
p1360
atp1361
Rp1362
sS'116500'
p1363
g2
((lp1364
S'116501'
p1365
atp1366
Rp1367
sS'102000'
p1368
g2
((lp1369
S'102001'
p1370
atp1371
Rp1372
sS'131500'
p1373
g2
((lp1374
S'131501'
p1375
aS'131502'
p1376
aS'131503'
p1377
atp1378
Rp1379
sS'129100'
p1380
g2
((lp1381
S'129101'
p1382
atp1383
Rp1384
sS'107700'
p1385
g2
((lp1386
S'107702'
p1387
aS'107701'
p1388
atp1389
Rp1390
sS'114400'
p1391
g2
((lp1392
S'114401'
p1393
aS'114402'
p1394
atp1395
Rp1396
sS'136200'
p1397
g2
((lp1398
S'136202'
p1399
aS'136203'
p1400
aS'136201'
p1401
atp1402
Rp1403
sS'113800'
p1404
g2
((lp1405
S'113801'
p1406
atp1407
Rp1408
sS'117200'
p1409
g2
((lp1410
S'117201'
p1411
atp1412
Rp1413
sS'127100'
p1414
g2
((lp1415
S'127101'
p1416
atp1417
Rp1418
sS'145700'
p1419
g2
((lp1420
S'145701'
p1421
atp1422
Rp1423
sS'146500'
p1424
g2
((lp1425
S'146502'
p1426
aS'146501'
p1427
atp1428
Rp1429
sS'137000'
p1430
g2
((lp1431
S'137003'
p1432
aS'137002'
p1433
aS'137001'
p1434
aS'137007'
p1435
aS'137006'
p1436
aS'137005'
p1437
aS'137004'
p1438
atp1439
Rp1440
sS'107900'
p1441
g2
((lp1442
S'107901'
p1443
aS'107902'
p1444
atp1445
Rp1446
sS'147100'
p1447
g2
((lp1448
S'147101'
p1449
aS'147103'
p1450
aS'147102'
p1451
atp1452
Rp1453
sS'105000'
p1454
g2
((lp1455
S'105002'
p1456
aS'105001'
p1457
atp1458
Rp1459
sS'120100'
p1460
g2
((lp1461
S'120101'
p1462
atp1463
Rp1464
sS'129300'
p1465
g2
((lp1466
S'129301'
p1467
atp1468
Rp1469
sS'119400'
p1470
g2
((lp1471
S'119401'
p1472
atp1473
Rp1474
sS'123300'
p1475
g2
((lp1476
S'123301'
p1477
atp1478
Rp1479
sS'143600'
p1480
g2
((lp1481
S'143601'
p1482
atp1483
Rp1484
sS'124800'
p1485
g2
((lp1486
S'124802'
p1487
aS'124801'
p1488
atp1489
Rp1490
sS'118100'
p1491
g2
((lp1492
S'118101'
p1493
atp1494
Rp1495
sS'121600'
p1496
g2
((lp1497
S'121601'
p1498
atp1499
Rp1500
sS'101100'
p1501
g2
((lp1502
S'101101'
p1503
atp1504
Rp1505
sS'147200'
p1506
g2
((lp1507
S'147202'
p1508
aS'147201'
p1509
atp1510
Rp1511
sS'132800'
p1512
g2
((lp1513
S'132801'
p1514
atp1515
Rp1516
sS'115300'
p1517
g2
((lp1518
S'115301'
p1519
atp1520
Rp1521
sS'149500'
p1522
g2
((lp1523
S'149501'
p1524
atp1525
Rp1526
sS'129800'
p1527
g2
((lp1528
S'129801'
p1529
aS'129802'
p1530
atp1531
Rp1532
sS'120200'
p1533
g2
((lp1534
S'120201'
p1535
atp1536
Rp1537
sS'114300'
p1538
g2
((lp1539
S'114301'
p1540
atp1541
Rp1542
sS'136100'
p1543
g2
((lp1544
S'136101'
p1545
aS'136103'
p1546
aS'136102'
p1547
atp1548
Rp1549
sS'104600'
p1550
g2
((lp1551
S'104601'
p1552
atp1553
Rp1554
sS'123600'
p1555
g2
((lp1556
S'123601'
p1557
aS'123602'
p1558
atp1559
Rp1560
sS'146600'
p1561
g2
((lp1562
S'146601'
p1563
aS'146602'
p1564
atp1565
Rp1566
sS'108100'
p1567
g2
((lp1568
S'108104'
p1569
aS'108105'
p1570
aS'108106'
p1571
aS'108101'
p1572
aS'108102'
p1573
aS'108103'
p1574
atp1575
Rp1576
sS'138800'
p1577
g2
((lp1578
S'138802'
p1579
aS'138803'
p1580
aS'138801'
p1581
atp1582
Rp1583
sS'139900'
p1584
g2
((lp1585
S'139901'
p1586
atp1587
Rp1588
sS'110800'
p1589
g2
((lp1590
S'110801'
p1591
aS'110802'
p1592
atp1593
Rp1594
sS'131000'
p1595
g2
((lp1596
S'131001'
p1597
atp1598
Rp1599
sS'115400'
p1600
g2
((lp1601
S'115401'
p1602
atp1603
Rp1604
sS'145500'
p1605
g2
((lp1606
S'145502'
p1607
aS'145501'
p1608
atp1609
Rp1610
sS'143500'
p1611
g2
((lp1612
S'143501'
p1613
atp1614
Rp1615
sS'101400'
p1616
g2
((lp1617
S'101402'
p1618
aS'101403'
p1619
aS'101401'
p1620
aS'101404'
p1621
atp1622
Rp1623
sS'125700'
p1624
g2
((lp1625
S'125703'
p1626
aS'125702'
p1627
aS'125701'
p1628
atp1629
Rp1630
sS'139000'
p1631
g2
((lp1632
S'139005'
p1633
aS'139004'
p1634
aS'139001'
p1635
aS'139003'
p1636
aS'139002'
p1637
atp1638
Rp1639
sS'136400'
p1640
g2
((lp1641
S'136401'
p1642
aS'136402'
p1643
aS'136403'
p1644
atp1645
Rp1646
sS'111700'
p1647
g2
((lp1648
S'111701'
p1649
aS'111702'
p1650
aS'111703'
p1651
atp1652
Rp1653
sS'126700'
p1654
g2
((lp1655
S'126704'
p1656
aS'126705'
p1657
aS'126702'
p1658
aS'126703'
p1659
aS'126701'
p1660
atp1661
Rp1662
sS'135100'
p1663
g2
((lp1664
S'135101'
p1665
aS'135102'
p1666
aS'135103'
p1667
aS'135104'
p1668
atp1669
Rp1670
sS'149000'
p1671
g2
((lp1672
S'149002'
p1673
aS'149001'
p1674
atp1675
Rp1676
sS'107300'
p1677
g2
((lp1678
S'107301'
p1679
atp1680
Rp1681
sS'118400'
p1682
g2
((lp1683
S'118401'
p1684
aS'118402'
p1685
atp1686
Rp1687
sS'121500'
p1688
g2
((lp1689
S'121501'
p1690
atp1691
Rp1692
sS'102500'
p1693
g2
((lp1694
S'102501'
p1695
atp1696
Rp1697
sS'123000'
p1698
g2
((lp1699
S'123002'
p1700
aS'123003'
p1701
aS'123001'
p1702
atp1703
Rp1704
sS'117300'
p1705
g2
((lp1706
S'117302'
p1707
aS'117301'
p1708
atp1709
Rp1710
sS'103700'
p1711
g2
((lp1712
S'103702'
p1713
aS'103701'
p1714
atp1715
Rp1716
sS'146000'
p1717
g2
((lp1718
S'146003'
p1719
aS'146002'
p1720
aS'146001'
p1721
atp1722
Rp1723
sS'141800'
p1724
g2
((lp1725
S'141802'
p1726
aS'141803'
p1727
aS'141801'
p1728
atp1729
Rp1730
sS'134200'
p1731
g2
((lp1732
S'134201'
p1733
atp1734
Rp1735
sS'113500'
p1736
g2
((lp1737
S'113501'
p1738
aS'113502'
p1739
atp1740
Rp1741
sS'139300'
p1742
g2
((lp1743
S'139302'
p1744
aS'139303'
p1745
aS'139301'
p1746
atp1747
Rp1748
sS'130400'
p1749
g2
((lp1750
S'130401'
p1751
atp1752
Rp1753
sS'126400'
p1754
g2
((lp1755
S'126401'
p1756
aS'126402'
p1757
atp1758
Rp1759
sS'128100'
p1760
g2
((lp1761
S'128101'
p1762
atp1763
Rp1764
sS'139100'
p1765
g2
((lp1766
S'139104'
p1767
aS'139105'
p1768
aS'139101'
p1769
aS'139102'
p1770
aS'139103'
p1771
atp1772
Rp1773
sS'108600'
p1774
g2
((lp1775
S'108601'
p1776
atp1777
Rp1778
sS'121000'
p1779
g2
((lp1780
S'121001'
p1781
atp1782
Rp1783
sS'101700'
p1784
g2
((lp1785
S'101701'
p1786
aS'101702'
p1787
atp1788
Rp1789
sS'124500'
p1790
g2
((lp1791
S'124501'
p1792
atp1793
Rp1794
sS'135800'
p1795
g2
((lp1796
S'135801'
p1797
aS'135802'
p1798
atp1799
Rp1800
sS'143800'
p1801
g2
((lp1802
S'143801'
p1803
aS'143802'
p1804
aS'143803'
p1805
atp1806
Rp1807
sS'145400'
p1808
g2
((lp1809
S'145402'
p1810
aS'145401'
p1811
atp1812
Rp1813
sS'132700'
p1814
g2
((lp1815
S'132701'
p1816
atp1817
Rp1818
sS'113200'
p1819
g2
((lp1820
S'113201'
p1821
atp1822
Rp1823
sS'125900'
p1824
g2
((lp1825
S'125901'
p1826
atp1827
Rp1828
sS'102600'
p1829
g2
((lp1830
S'102601'
p1831
atp1832
Rp1833
sS'103200'
p1834
g2
((lp1835
S'103202'
p1836
aS'103203'
p1837
aS'103201'
p1838
aS'103204'
p1839
atp1840
Rp1841
sS'135000'
p1842
g2
((lp1843
S'135001'
p1844
aS'135003'
p1845
aS'135002'
p1846
atp1847
Rp1848
sS'133500'
p1849
g2
((lp1850
S'133501'
p1851
atp1852
Rp1853
sS'112400'
p1854
g2
((lp1855
S'112408'
p1856
aS'112406'
p1857
aS'112407'
p1858
aS'112404'
p1859
aS'112405'
p1860
aS'112402'
p1861
aS'112403'
p1862
aS'112401'
p1863
atp1864
Rp1865
sS'139800'
p1866
g2
((lp1867
S'139801'
p1868
atp1869
Rp1870
sS'104900'
p1871
g2
((lp1872
S'104901'
p1873
aS'104902'
p1874
atp1875
Rp1876
sS'130700'
p1877
g2
((lp1878
S'130701'
p1879
atp1880
Rp1881
sS'117000'
p1882
g2
((lp1883
S'117001'
p1884
atp1885
Rp1886
sS'148100'
p1887
g2
((lp1888
S'148101'
p1889
atp1890
Rp1891
sS'104300'
p1892
g2
((lp1893
S'104301'
p1894
atp1895
Rp1896
sS'106600'
p1897
g2
((lp1898
S'106605'
p1899
aS'106604'
p1900
aS'106606'
p1901
aS'106601'
p1902
aS'106603'
p1903
aS'106602'
p1904
atp1905
Rp1906
sS'109000'
p1907
g2
((lp1908
S'109001'
p1909
atp1910
Rp1911
sS'117900'
p1912
g2
((lp1913
S'117901'
p1914
atp1915
Rp1916
sS'133000'
p1917
g2
((lp1918
S'133003'
p1919
aS'133002'
p1920
aS'133001'
p1921
atp1922
Rp1923
sS'120700'
p1924
g2
((lp1925
S'120701'
p1926
aS'120702'
p1927
aS'120703'
p1928
atp1929
Rp1930
sS'132200'
p1931
g2
((lp1932
S'132201'
p1933
atp1934
Rp1935
sS'119800'
p1936
g2
((lp1937
S'119801'
p1938
atp1939
Rp1940
sS'112700'
p1941
g2
((lp1942
S'112701'
p1943
atp1944
Rp1945
sS'124600'
p1946
g2
((lp1947
S'124601'
p1948
atp1949
Rp1950
sS'117500'
p1951
g2
((lp1952
S'117501'
p1953
atp1954
Rp1955
sS'103100'
p1956
g2
((lp1957
S'103101'
p1958
aS'103102'
p1959
atp1960
Rp1961
sS'118200'
p1962
g2
((lp1963
S'118202'
p1964
aS'118201'
p1965
atp1966
Rp1967
sS'110200'
p1968
g2
((lp1969
S'110201'
p1970
atp1971
Rp1972
sS'118000'
p1973
g2
((lp1974
S'118001'
p1975
aS'118002'
p1976
aS'118003'
p1977
atp1978
Rp1979
sS'134700'
p1980
g2
((lp1981
S'134701'
p1982
aS'134703'
p1983
aS'134702'
p1984
atp1985
Rp1986
sS'139500'
p1987
g2
((lp1988
S'139501'
p1989
aS'139502'
p1990
aS'139503'
p1991
aS'139504'
p1992
aS'139505'
p1993
aS'139506'
p1994
atp1995
Rp1996
sS'142900'
p1997
g2
((lp1998
S'142901'
p1999
atp2000
Rp2001
sS'141600'
p2002
g2
((lp2003
S'141601'
p2004
atp2005
Rp2006
sS'122200'
p2007
g2
((lp2008
S'122203'
p2009
aS'122202'
p2010
aS'122201'
p2011
atp2012
Rp2013
sS'144400'
p2014
g2
((lp2015
S'144401'
p2016
aS'144402'
p2017
atp2018
Rp2019
sS'142700'
p2020
g2
((lp2021
S'142701'
p2022
atp2023
Rp2024
sS'111200'
p2025
g2
((lp2026
S'111201'
p2027
atp2028
Rp2029
sS'104000'
p2030
g2
((lp2031
S'104001'
p2032
aS'104003'
p2033
aS'104002'
p2034
aS'104005'
p2035
aS'104004'
p2036
aS'104006'
p2037
atp2038
Rp2039
sS'111000'
p2040
g2
((lp2041
S'111002'
p2042
aS'111001'
p2043
atp2044
Rp2045
sS'124300'
p2046
g2
((lp2047
S'124301'
p2048
aS'124302'
p2049
atp2050
Rp2051
sS'135300'
p2052
g2
((lp2053
S'135302'
p2054
aS'135301'
p2055
atp2056
Rp2057
sS'106300'
p2058
g2
((lp2059
S'106301'
p2060
atp2061
Rp2062
sS'132100'
p2063
g2
((lp2064
S'132101'
p2065
aS'132102'
p2066
atp2067
Rp2068
sS'109300'
p2069
g2
((lp2070
S'109301'
p2071
atp2072
Rp2073
sS'137400'
p2074
g2
((lp2075
S'137401'
p2076
atp2077
Rp2078
sS'106900'
p2079
g2
((lp2080
S'106902'
p2081
aS'106903'
p2082
aS'106901'
p2083
atp2084
Rp2085
sS'141100'
p2086
g2
((lp2087
S'141101'
p2088
atp2089
Rp2090
sS'115900'
p2091
g2
((lp2092
S'115902'
p2093
aS'115901'
p2094
atp2095
Rp2096
sS'135600'
p2097
g2
((lp2098
S'135601'
p2099
atp2100
Rp2101
sS'126100'
p2102
g2
((lp2103
S'126101'
p2104
aS'126102'
p2105
atp2106
Rp2107
sS'128200'
p2108
g2
((lp2109
S'128201'
p2110
atp2111
Rp2112
sS'129600'
p2113
g2
((lp2114
S'129602'
p2115
aS'129601'
p2116
atp2117
Rp2118
sS'122700'
p2119
g2
((lp2120
S'122702'
p2121
aS'122703'
p2122
aS'122701'
p2123
aS'122706'
p2124
aS'122707'
p2125
aS'122704'
p2126
aS'122705'
p2127
aS'122708'
p2128
aS'122709'
p2129
atp2130
Rp2131
sS'143200'
p2132
g2
((lp2133
S'143201'
p2134
atp2135
Rp2136
sS'102800'
p2137
g2
((lp2138
S'102802'
p2139
aS'102801'
p2140
atp2141
Rp2142
sS'127800'
p2143
g2
((lp2144
S'127802'
p2145
aS'127801'
p2146
atp2147
Rp2148
sS'109600'
p2149
g2
((lp2150
S'109601'
p2151
atp2152
Rp2153
sS'147600'
p2154
g2
((lp2155
S'147602'
p2156
aS'147603'
p2157
aS'147601'
p2158
atp2159
Rp2160
sS'133800'
p2161
g2
((lp2162
S'133802'
p2163
aS'133801'
p2164
atp2165
Rp2166
sS'144100'
p2167
g2
((lp2168
S'144104'
p2169
aS'144101'
p2170
aS'144102'
p2171
aS'144103'
p2172
atp2173
Rp2174
sS'133600'
p2175
g2
((lp2176
S'133601'
p2177
aS'133602'
p2178
atp2179
Rp2180
sS'148500'
p2181
g2
((lp2182
S'148501'
p2183
atp2184
Rp2185
sS'138100'
p2186
g2
((lp2187
S'138105'
p2188
aS'138104'
p2189
aS'138103'
p2190
aS'138102'
p2191
aS'138101'
p2192
atp2193
Rp2194
sS'105800'
p2195
g2
((lp2196
S'105802'
p2197
aS'105801'
p2198
atp2199
Rp2200
sS'142000'
p2201
g2
((lp2202
S'142003'
p2203
aS'142002'
p2204
aS'142001'
p2205
aS'142004'
p2206
atp2207
Rp2208
sS'100100'
p2209
g2
((lp2210
S'100101'
p2211
atp2212
Rp2213
sS'120800'
p2214
g2
((lp2215
S'120801'
p2216
atp2217
Rp2218
sS'128700'
p2219
g2
((lp2220
S'128701'
p2221
atp2222
Rp2223
sS'105600'
p2224
g2
((lp2225
S'105601'
p2226
atp2227
Rp2228
sS'129500'
p2229
g2
((lp2230
S'129501'
p2231
atp2232
Rp2233
sS'110400'
p2234
g2
((lp2235
S'110401'
p2236
atp2237
Rp2238
sS'127000'
p2239
g2
((lp2240
S'127001'
p2241
atp2242
Rp2243
sS'123900'
p2244
g2
((lp2245
S'123901'
p2246
atp2247
Rp2248
sS'131100'
p2249
g2
((lp2250
S'131101'
p2251
aS'131102'
p2252
atp2253
Rp2254
sS'122400'
p2255
g2
((lp2256
S'122401'
p2257
aS'122402'
p2258
atp2259
Rp2260
sS'125300'
p2261
g2
((lp2262
S'125301'
p2263
atp2264
Rp2265
sS'100600'
p2266
g2
((lp2267
S'100601'
p2268
atp2269
Rp2270
sS'127500'
p2271
g2
((lp2272
S'127503'
p2273
aS'127502'
p2274
aS'127501'
p2275
atp2276
Rp2277
sS'112200'
p2278
g2
((lp2279
S'112201'
p2280
atp2281
Rp2282
sS'138400'
p2283
g2
((lp2284
S'138401'
p2285
atp2286
Rp2287
sS'146100'
p2288
g2
((lp2289
S'146102'
p2290
aS'146101'
p2291
atp2292
Rp2293
sS'119200'
p2294
g2
((lp2295
S'119201'
p2296
aS'119203'
p2297
aS'119202'
p2298
atp2299
Rp2300
sS'116400'
p2301
g2
((lp2302
S'116402'
p2303
aS'116401'
p2304
atp2305
Rp2306
sS'102100'
p2307
g2
((lp2308
S'102101'
p2309
atp2310
Rp2311
sS'137200'
p2312
g2
((lp2313
S'137201'
p2314
atp2315
Rp2316
sS'147500'
p2317
g2
((lp2318
S'147501'
p2319
aS'147502'
p2320
atp2321
Rp2322
sS'113900'
p2323
g2
((lp2324
S'113901'
p2325
atp2326
Rp2327
sS'128800'
p2328
g2
((lp2329
S'128801'
p2330
atp2331
Rp2332
sS'148200'
p2333
g2
((lp2334
S'148203'
p2335
aS'148202'
p2336
aS'148201'
p2337
atp2338
Rp2339
sS'106700'
p2340
g2
((lp2341
S'106704'
p2342
aS'106701'
p2343
aS'106702'
p2344
aS'106703'
p2345
atp2346
Rp2347
sS'108800'
p2348
g2
((lp2349
S'108801'
p2350
aS'108802'
p2351
atp2352
Rp2353
sS'121900'
p2354
g2
((lp2355
S'121901'
p2356
atp2357
Rp2358
sS'129000'
p2359
g2
((lp2360
S'129001'
p2361
aS'129002'
p2362
aS'129003'
p2363
atp2364
Rp2365
sS'149300'
p2366
g2
((lp2367
S'149301'
p2368
aS'149302'
p2369
atp2370
Rp2371
sS'107600'
p2372
g2
((lp2373
S'107601'
p2374
atp2375
Rp2376
sS'105100'
p2377
g2
((lp2378
S'105103'
p2379
aS'105102'
p2380
aS'105101'
p2381
aS'105104'
p2382
atp2383
Rp2384
sS'144700'
p2385
g2
((lp2386
S'144702'
p2387
aS'144703'
p2388
aS'144701'
p2389
aS'144704'
p2390
atp2391
Rp2392
sS'114700'
p2393
g2
((lp2394
S'114703'
p2395
aS'114702'
p2396
aS'114701'
p2397
atp2398
Rp2399
sS'137100'
p2400
g2
((lp2401
S'137102'
p2402
aS'137103'
p2403
aS'137101'
p2404
atp2405
Rp2406
sS'107800'
p2407
g2
((lp2408
S'107801'
p2409
atp2410
Rp2411
sS'146200'
p2412
g2
((lp2413
S'146205'
p2414
aS'146204'
p2415
aS'146207'
p2416
aS'146206'
p2417
aS'146201'
p2418
aS'146203'
p2419
aS'146202'
p2420
atp2421
Rp2422
sS'147000'
p2423
g2
((lp2424
S'147001'
p2425
atp2426
Rp2427
sS'115500'
p2428
g2
((lp2429
S'115501'
p2430
atp2431
Rp2432
sS'131600'
p2433
g2
((lp2434
S'131603'
p2435
aS'131602'
p2436
aS'131601'
p2437
atp2438
Rp2439
sS'138700'
p2440
g2
((lp2441
S'138701'
p2442
aS'138703'
p2443
aS'138702'
p2444
aS'138705'
p2445
aS'138704'
p2446
aS'138707'
p2447
aS'138706'
p2448
aS'138708'
p2449
atp2450
Rp2451
sS'123200'
p2452
g2
((lp2453
S'123204'
p2454
aS'123205'
p2455
aS'123201'
p2456
aS'123202'
p2457
aS'123203'
p2458
atp2459
Rp2460
sS'116700'
p2461
g2
((lp2462
S'116701'
p2463
aS'116703'
p2464
aS'116702'
p2465
atp2466
Rp2467
sS'119500'
p2468
g2
((lp2469
S'119501'
p2470
atp2471
Rp2472
sS'148800'
p2473
g2
((lp2474
S'148801'
p2475
atp2476
Rp2477
sS'149400'
p2478
g2
((lp2479
S'149401'
p2480
atp2481
Rp2482
sS'109900'
p2483
g2
((lp2484
S'109901'
p2485
atp2486
Rp2487
sS'124900'
p2488
g2
((lp2489
S'124901'
p2490
atp2491
Rp2492
sS'143100'
p2493
g2
((lp2494
S'143101'
p2495
atp2496
Rp2497
sS'101000'
p2498
g2
((lp2499
S'101001'
p2500
atp2501
Rp2502
sS'107500'
p2503
g2
((lp2504
S'107501'
p2505
atp2506
Rp2507
sS'114200'
p2508
g2
((lp2509
S'114201'
p2510
atp2511
Rp2512
sS'136000'
p2513
g2
((lp2514
S'136004'
p2515
aS'136005'
p2516
aS'136006'
p2517
aS'136007'
p2518
aS'136001'
p2519
aS'136002'
p2520
aS'136003'
p2521
aS'136008'
p2522
aS'136009'
p2523
aS'136010'
p2524
atp2525
Rp2526
sS'145000'
p2527
g2
((lp2528
S'145002'
p2529
aS'145003'
p2530
aS'145001'
p2531
atp2532
Rp2533
sS'104700'
p2534
g2
((lp2535
S'104701'
p2536
atp2537
Rp2538
sS'125500'
p2539
g2
((lp2540
S'125501'
p2541
atp2542
Rp2543
sS'115800'
p2544
g2
((lp2545
S'115801'
p2546
atp2547
Rp2548
sS'127300'
p2549
g2
((lp2550
S'127301'
p2551
atp2552
Rp2553
sS'130000'
p2554
g2
((lp2555
S'130001'
p2556
atp2557
Rp2558
sS'145900'
p2559
g2
((lp2560
S'145902'
p2561
aS'145901'
p2562
atp2563
Rp2564
sS'146700'
p2565
g2
((lp2566
S'146701'
p2567
atp2568
Rp2569
sS'108200'
p2570
g2
((lp2571
S'108203'
p2572
aS'108202'
p2573
aS'108201'
p2574
atp2575
Rp2576
sS'143400'
p2577
g2
((lp2578
S'143401'
p2579
atp2580
Rp2581
sS'125600'
p2582
g2
((lp2583
S'125601'
p2584
atp2585
Rp2586
sS'101300'
p2587
g2
((lp2588
S'101301'
p2589
atp2590
Rp2591
sS'122900'
p2592
g2
((lp2593
S'122901'
p2594
atp2595
Rp2596
sS'127900'
p2597
g2
((lp2598
S'127901'
p2599
atp2600
Rp2601
sS'131800'
p2602
g2
((lp2603
S'131805'
p2604
aS'131804'
p2605
aS'131801'
p2606
aS'131803'
p2607
aS'131802'
p2608
atp2609
Rp2610
sS'113300'
p2611
g2
((lp2612
S'113301'
p2613
atp2614
Rp2615
sS'123500'
p2616
g2
((lp2617
S'123501'
p2618
atp2619
Rp2620
sS'118700'
p2621
g2
((lp2622
S'118701'
p2623
atp2624
Rp2625
sS'121400'
p2626
g2
((lp2627
S'121404'
p2628
aS'121401'
p2629
aS'121402'
p2630
aS'121403'
p2631
atp2632
Rp2633
sS'116800'
p2634
g2
((lp2635
S'116802'
p2636
aS'116803'
p2637
aS'116801'
p2638
atp2639
Rp2640
sS'114100'
p2641
g2
((lp2642
S'114101'
p2643
atp2644
Rp2645
sS'111400'
p2646
g2
((lp2647
S'111401'
p2648
atp2649
Rp2650
sS'149700'
p2651
g2
((lp2652
S'149701'
p2653
atp2654
Rp2655
sS'107200'
p2656
g2
((lp2657
S'107202'
p2658
aS'107203'
p2659
aS'107201'
p2660
atp2661
Rp2662
sS'134100'
p2663
g2
((lp2664
S'134101'
p2665
atp2666
Rp2667
sS'140700'
p2668
g2
((lp2669
S'140701'
p2670
atp2671
Rp2672
sS'113600'
p2673
g2
((lp2674
S'113601'
p2675
atp2676
Rp2677
sS'118900'
p2678
g2
((lp2679
S'118901'
p2680
atp2681
Rp2682
sS'103600'
p2683
g2
((lp2684
S'103601'
p2685
atp2686
Rp2687
sS'112800'
p2688
g2
((lp2689
S'112801'
p2690
atp2691
Rp2692
sS'100800'
p2693
g2
((lp2694
S'100801'
p2695
atp2696
Rp2697
sS'133100'
p2698
g2
((lp2699
S'133101'
p2700
atp2701
Rp2702
sS'130300'
p2703
g2
((lp2704
S'130301'
p2705
aS'130303'
p2706
aS'130302'
p2707
atp2708
Rp2709
sS'115600'
p2710
g2
((lp2711
S'115601'
p2712
aS'115602'
p2713
atp2714
Rp2715
sS'137800'
p2716
g2
((lp2717
S'137802'
p2718
aS'137801'
p2719
atp2720
Rp2721
sS'132600'
p2722
g2
((lp2723
S'132601'
p2724
atp2725
Rp2726
sS'101600'
p2727
g2
((lp2728
S'101601'
p2729
atp2730
Rp2731
sS'102700'
p2732
g2
((lp2733
S'102701'
p2734
atp2735
Rp2736
sS'103500'
p2737
g2
((lp2738
S'103501'
p2739
aS'103503'
p2740
aS'103502'
p2741
atp2742
Rp2743
sS'120300'
p2744
g2
((lp2745
S'120301'
p2746
atp2747
Rp2748
sS'133200'
p2749
g2
((lp2750
S'133201'
p2751
aS'133202'
p2752
atp2753
Rp2754
sS'121300'
p2755
g2
((lp2756
S'121301'
p2757
atp2758
Rp2759
sS'142400'
p2760
g2
((lp2761
S'142401'
p2762
atp2763
Rp2764
sS'130600'
p2765
g2
((lp2766
S'130601'
p2767
atp2768
Rp2769
sS'117100'
p2770
g2
((lp2771
S'117101'
p2772
aS'117102'
p2773
atp2774
Rp2775
sS'108400'
p2776
g2
((lp2777
S'108401'
p2778
atp2779
Rp2780
sS'146800'
p2781
g2
((lp2782
S'146801'
p2783
atp2784
Rp2785
sS'144600'
p2786
g2
((lp2787
S'144601'
p2788
atp2789
Rp2790
sS'140600'
p2791
g2
((lp2792
S'140601'
p2793
atp2794
Rp2795
sS'125800'
p2796
g2
((lp2797
S'125801'
p2798
aS'125802'
p2799
atp2800
Rp2801
sS'120400'
p2802
g2
((lp2803
S'120401'
p2804
atp2805
Rp2806
sS'136700'
p2807
g2
((lp2808
S'136703'
p2809
aS'136702'
p2810
aS'136701'
p2811
aS'136707'
p2812
aS'136706'
p2813
aS'136705'
p2814
aS'136704'
p2815
atp2816
Rp2817
sS'104400'
p2818
g2
((lp2819
S'104401'
p2820
aS'104402'
p2821
atp2822
Rp2823
sS'124700'
p2824
g2
((lp2825
S'124701'
p2826
atp2827
Rp2828
sS'129900'
p2829
g2
((lp2830
S'129901'
p2831
atp2832
Rp2833
sS'135700'
p2834
g2
((lp2835
S'135702'
p2836
aS'135703'
p2837
aS'135701'
p2838
atp2839
Rp2840
sS'118300'
p2841
g2
((lp2842
S'118303'
p2843
aS'118302'
p2844
aS'118301'
p2845
atp2846
Rp2847
sS'132500'
p2848
g2
((lp2849
S'132510'
p2850
aS'132511'
p2851
aS'132509'
p2852
aS'132508'
p2853
aS'132505'
p2854
aS'132504'
p2855
aS'132507'
p2856
aS'132506'
p2857
aS'132501'
p2858
aS'132503'
p2859
aS'132502'
p2860
atp2861
Rp2862
sS'113000'
p2863
g2
((lp2864
S'113001'
p2865
atp2866
Rp2867
sS'139600'
p2868
g2
((lp2869
S'139603'
p2870
aS'139602'
p2871
aS'139601'
p2872
atp2873
Rp2874
sS'122300'
p2875
g2
((lp2876
S'122302'
p2877
aS'122301'
p2878
atp2879
Rp2880
sS'141500'
p2881
g2
((lp2882
S'141501'
p2883
atp2884
Rp2885
sS'103000'
p2886
g2
((lp2887
S'103001'
p2888
aS'103002'
p2889
atp2890
Rp2891
sS'104100'
p2892
g2
((lp2893
S'104101'
p2894
atp2895
Rp2896
sS'111100'
p2897
g2
((lp2898
S'111101'
p2899
atp2900
Rp2901
sS'145100'
p2902
g2
((lp2903
S'145102'
p2904
aS'145101'
p2905
atp2906
Rp2907
sS'126500'
p2908
g2
((lp2909
S'126501'
p2910
aS'126502'
p2911
atp2912
Rp2913
sS'135400'
p2914
g2
((lp2915
S'135401'
p2916
aS'135402'
p2917
atp2918
Rp2919
sS'117600'
p2920
g2
((lp2921
S'117601'
p2922
atp2923
Rp2924
sS'105500'
p2925
g2
((lp2926
S'105501'
p2927
atp2928
Rp2929
sS'132000'
p2930
g2
((lp2931
S'132001'
p2932
atp2933
Rp2934
sS'147900'
p2935
g2
((lp2936
S'147901'
p2937
atp2938
Rp2939
sS'106000'
p2940
g2
((lp2941
S'106002'
p2942
aS'106001'
p2943
atp2944
Rp2945
sS'109200'
p2946
g2
((lp2947
S'109201'
p2948
atp2949
Rp2950
sS'137500'
p2951
g2
((lp2952
S'137504'
p2953
aS'137502'
p2954
aS'137503'
p2955
aS'137501'
p2956
atp2957
Rp2958
sS'101900'
p2959
g2
((lp2960
S'101901'
p2961
atp2962
Rp2963
sS'126900'
p2964
g2
((lp2965
S'126901'
p2966
aS'126902'
p2967
atp2968
Rp2969
sS'126200'
p2970
g2
((lp2971
S'126202'
p2972
aS'126201'
p2973
atp2974
Rp2975
sS'128300'
p2976
g2
((lp2977
S'128301'
p2978
atp2979
Rp2980
sS'136900'
p2981
g2
((lp2982
S'136901'
p2983
aS'136903'
p2984
aS'136902'
p2985
atp2986
Rp2987
sS'141000'
p2988
g2
((lp2989
S'141001'
p2990
atp2991
Rp2992
s.